; Function Attrs: mustprogress sspstrong uwtable
define void @_ZN3tbb6detail2r112itt_task_endENS0_2d115itt_domain_enumE(i32 noundef %0) local_unnamed_addr #0 personality ptr @__gxx_personality_v0 {
  %2 = alloca i8, align 1
  %3 = zext i32 %0 to i64
  %4 = getelementptr inbounds nuw [3 x ptr], ptr @_ZN3tbb6detail2r1L11tbb_domainsE, i64 0, i64 %3
  %5 = load ptr, ptr %4, align 8, !tbaa !9
  %6 = icmp eq ptr %5, null
  br i1 %6, label %7, label %_ZN3tbb6detail2r1L14get_itt_domainENS0_2d115itt_domain_enumE.exit.thread

7:                                                ; preds = %1
  %8 = load atomic i8, ptr @_ZN3tbb6detail2r1L22ITT_InitializationDoneE.0 seq_cst, align 1
  %9 = trunc i8 %8 to i1
  br i1 %9, label %_ZN3tbb6detail2r1L14get_itt_domainENS0_2d115itt_domain_enumE.exit, label %10

10:                                               ; preds = %7
  call void @llvm.lifetime.start.p0(i64 1, ptr nonnull %2)
  %11 = atomicrmw xchg ptr @_ZN3tbb6detail2r114__TBB_InitOnce18InitializationLockE, i8 1 seq_cst, align 1
  %12 = icmp ne i8 %11, 0
  store i1 %12, ptr %2, align 1
  %.0..0..0..0..0..0..0..0..0..0..i2.i.i.i = load i8, ptr %2, align 1, !tbaa !3, !range !23, !noundef !24
  %13 = trunc nuw i8 %.0..0..0..0..0..0..0..0..0..0..i2.i.i.i to i1
  call void @llvm.lifetime.end.p0(i64 1, ptr nonnull %2)
  br i1 %13, label %.lr.ph.i.i.i, label %_ZN3tbb6detail2r114__TBB_InitOnce4lockEv.exit.i.i

.lr.ph.i.i.i:                                     ; preds = %10, %_ZN3tbb6detail2d014atomic_backoff5pauseEv.exit.i.i.i
  %.sroa.0.03.i.i.i = phi i32 [ %.sroa.0.1.i.i.i, %_ZN3tbb6detail2d014atomic_backoff5pauseEv.exit.i.i.i ], [ 1, %10 ]
  %14 = icmp slt i32 %.sroa.0.03.i.i.i, 17
  br i1 %14, label %15, label %20

15:                                               ; preds = %.lr.ph.i.i.i
  %16 = icmp sgt i32 %.sroa.0.03.i.i.i, 0
  br i1 %16, label %.lr.ph.i.i.i.i.i, label %_ZN3tbb6detail2d0L13machine_pauseEi.exit.i.i.i.i

.lr.ph.i.i.i.i.i:                                 ; preds = %15, %.lr.ph.i.i.i.i.i
  %.01.i.i.i.i.i = phi i32 [ %17, %.lr.ph.i.i.i.i.i ], [ %.sroa.0.03.i.i.i, %15 ]
  %17 = add nsw i32 %.01.i.i.i.i.i, -1
  tail call void @llvm.x86.sse2.pause()
  %18 = icmp samesign ugt i32 %.01.i.i.i.i.i, 1
  br i1 %18, label %.lr.ph.i.i.i.i.i, label %_ZN3tbb6detail2d0L13machine_pauseEi.exit.i.i.i.i, !llvm.loop !25

_ZN3tbb6detail2d0L13machine_pauseEi.exit.i.i.i.i: ; preds = %.lr.ph.i.i.i.i.i, %15
  %19 = shl nsw i32 %.sroa.0.03.i.i.i, 1
  br label %_ZN3tbb6detail2d014atomic_backoff5pauseEv.exit.i.i.i

20:                                               ; preds = %.lr.ph.i.i.i
  %21 = tail call noundef i32 @sched_yield() #4
  br label %_ZN3tbb6detail2d014atomic_backoff5pauseEv.exit.i.i.i

_ZN3tbb6detail2d014atomic_backoff5pauseEv.exit.i.i.i: ; preds = %20, %_ZN3tbb6detail2d0L13machine_pauseEi.exit.i.i.i.i
  %.sroa.0.1.i.i.i = phi i32 [ %19, %_ZN3tbb6detail2d0L13machine_pauseEi.exit.i.i.i.i ], [ %.sroa.0.03.i.i.i, %20 ]
  call void @llvm.lifetime.start.p0(i64 1, ptr nonnull %2)
  %22 = atomicrmw xchg ptr @_ZN3tbb6detail2r114__TBB_InitOnce18InitializationLockE, i8 1 seq_cst, align 1
  %23 = icmp ne i8 %22, 0
  store i1 %23, ptr %2, align 1
  %.0..0..0..0..0..0..0..0..0..0..i.i.i.i = load i8, ptr %2, align 1, !tbaa !3, !range !23, !noundef !24
  %24 = trunc nuw i8 %.0..0..0..0..0..0..0..0..0..0..i.i.i.i to i1
  call void @llvm.lifetime.end.p0(i64 1, ptr nonnull %2)
  br i1 %24, label %.lr.ph.i.i.i, label %_ZN3tbb6detail2r114__TBB_InitOnce4lockEv.exit.i.i, !llvm.loop !26

_ZN3tbb6detail2r114__TBB_InitOnce4lockEv.exit.i.i: ; preds = %_ZN3tbb6detail2d014atomic_backoff5pauseEv.exit.i.i.i, %10
  tail call void @_ZN3tbb6detail2r133ITT_DoUnsafeOneTimeInitializationEv()
  store atomic i8 0, ptr @_ZN3tbb6detail2r114__TBB_InitOnce18InitializationLockE release, align 1
  br label %_ZN3tbb6detail2r1L14get_itt_domainENS0_2d115itt_domain_enumE.exit

_ZN3tbb6detail2r1L14get_itt_domainENS0_2d115itt_domain_enumE.exit: ; preds = %7, %_ZN3tbb6detail2r114__TBB_InitOnce4lockEv.exit.i.i
  %.pr = load ptr, ptr %4, align 8, !tbaa !9
  %25 = icmp eq ptr %.pr, null
  br i1 %25, label %32, label %_ZN3tbb6detail2r1L14get_itt_domainENS0_2d115itt_domain_enumE.exit.thread

_ZN3tbb6detail2r1L14get_itt_domainENS0_2d115itt_domain_enumE.exit.thread: ; preds = %1, %_ZN3tbb6detail2r1L14get_itt_domainENS0_2d115itt_domain_enumE.exit
  %26 = phi ptr [ %.pr, %_ZN3tbb6detail2r1L14get_itt_domainENS0_2d115itt_domain_enumE.exit ], [ %5, %1 ]
  %27 = load volatile i32, ptr %26, align 8, !tbaa !11
  %28 = icmp ne i32 %27, 0
  %29 = load ptr, ptr @__itt_task_end_ptr__3_0, align 8
  %30 = icmp ne ptr %29, null
  %or.cond3 = select i1 %28, i1 %30, i1 false
  br i1 %or.cond3, label %31, label %32

31:                                               ; preds = %_ZN3tbb6detail2r1L14get_itt_domainENS0_2d115itt_domain_enumE.exit.thread
  tail call void %29(ptr noundef nonnull %26)
  br label %32

32:                                               ; preds = %31, %_ZN3tbb6detail2r1L14get_itt_domainENS0_2d115itt_domain_enumE.exit.thread, %_ZN3tbb6detail2r1L14get_itt_domainENS0_2d115itt_domain_enumE.exit
  ret void
}